; Function Attrs: nounwind uwtable
define internal fastcc void @link_set_out_status(ptr noundef %0, i32 noundef %1, i64 noundef %2) unnamed_addr #0 {
  %4 = getelementptr inbounds nuw i8, ptr %0, i64 388
  %5 = load i32, ptr %4, align 4, !tbaa !65
  %.not = icmp eq i32 %5, 0
  br i1 %.not, label %7, label %6

6:                                                ; preds = %3
  tail call void (ptr, i32, ptr, ...) @av_log(ptr noundef null, i32 noundef 0, ptr noundef nonnull @.str, ptr noundef nonnull @.str.41, ptr noundef nonnull @.str.2, i32 noundef 273) #15
  tail call void @abort() #16
  unreachable

7:                                                ; preds = %3
  %8 = getelementptr inbounds nuw i8, ptr %0, i64 384
  %9 = load i32, ptr %8, align 8, !tbaa !99
  %.not9 = icmp eq i32 %9, 0
  br i1 %.not9, label %11, label %10

10:                                               ; preds = %7
  tail call void (ptr, i32, ptr, ...) @av_log(ptr noundef null, i32 noundef 0, ptr noundef nonnull @.str, ptr noundef nonnull @.str.42, ptr noundef nonnull @.str.2, i32 noundef 274) #15
  tail call void @abort() #16
  unreachable

11:                                               ; preds = %7
  store i32 %1, ptr %8, align 8, !tbaa !99
  %.not10 = icmp eq i64 %2, -9223372036854775808
  br i1 %.not10, label %update_link_current_pts.exit, label %12

12:                                               ; preds = %11
  %13 = getelementptr inbounds nuw i8, ptr %0, i64 208
  store i64 %2, ptr %13, align 8, !tbaa !75
  %14 = getelementptr inbounds nuw i8, ptr %0, i64 96
  %15 = load i64, ptr %14, align 8
  %16 = tail call i64 @av_rescale_q(i64 noundef %2, i64 %15, i64 4294967296000001) #17
  %17 = getelementptr inbounds nuw i8, ptr %0, i64 216
  store i64 %16, ptr %17, align 8, !tbaa !74
  %18 = getelementptr inbounds nuw i8, ptr %0, i64 200
  %19 = load ptr, ptr %18, align 8, !tbaa !51
  %.not.i = icmp eq ptr %19, null
  br i1 %.not.i, label %update_link_current_pts.exit, label %20

20:                                               ; preds = %12
  %21 = getelementptr inbounds nuw i8, ptr %0, i64 392
  %22 = load i32, ptr %21, align 8, !tbaa !101
  %23 = icmp sgt i32 %22, -1
  br i1 %23, label %24, label %update_link_current_pts.exit

24:                                               ; preds = %20
  tail call void @ff_avfilter_graph_update_heap(ptr noundef nonnull %19, ptr noundef nonnull %0) #15
  br label %update_link_current_pts.exit

update_link_current_pts.exit:                     ; preds = %24, %20, %12, %11
  %25 = getelementptr inbounds nuw i8, ptr %0, i64 16
  %26 = load ptr, ptr %25, align 8, !tbaa !47
  %27 = getelementptr inbounds nuw i8, ptr %26, i64 64
  %28 = load i32, ptr %27, align 8, !tbaa !27
  %.not.i11 = icmp eq i32 %28, 0
  br i1 %.not.i11, label %filter_unblock.exit, label %.lr.ph.i

.lr.ph.i:                                         ; preds = %update_link_current_pts.exit
  %29 = getelementptr inbounds nuw i8, ptr %26, i64 56
  %30 = load ptr, ptr %29, align 8, !tbaa !29
  %wide.trip.count.i = zext i32 %28 to i64
  br label %31

31:                                               ; preds = %31, %.lr.ph.i
  %indvars.iv.i = phi i64 [ 0, %.lr.ph.i ], [ %indvars.iv.next.i, %31 ]
  %32 = getelementptr inbounds nuw ptr, ptr %30, i64 %indvars.iv.i
  %33 = load ptr, ptr %32, align 8, !tbaa !17
  %34 = getelementptr inbounds nuw i8, ptr %33, i64 368
  store i32 0, ptr %34, align 8, !tbaa !66
  %indvars.iv.next.i = add nuw nsw i64 %indvars.iv.i, 1
  %exitcond.not.i = icmp eq i64 %indvars.iv.next.i, %wide.trip.count.i
  br i1 %exitcond.not.i, label %filter_unblock.exit, label %31, !llvm.loop !67

filter_unblock.exit:                              ; preds = %31, %update_link_current_pts.exit
  %35 = load ptr, ptr %0, align 8, !tbaa !38
  %36 = getelementptr inbounds nuw i8, ptr %35, i64 164
  %37 = load i32, ptr %36, align 4, !tbaa !62
  %..i = tail call i32 @llvm.umax.i32(i32 %37, i32 200)
  store i32 %..i, ptr %36, align 4, !tbaa !62
  ret void
}